; Function Attrs: nounwind uwtable
define hidden void @uv__poll_close(ptr noundef %0) local_unnamed_addr #0 {
  %2 = getelementptr inbounds nuw i8, ptr %0, i64 8
  %3 = load ptr, ptr %2, align 8
  %4 = getelementptr inbounds nuw i8, ptr %0, i64 104
  tail call void @uv__io_stop(ptr noundef %3, ptr noundef nonnull %4, i32 noundef 8199) #2
  %5 = getelementptr inbounds nuw i8, ptr %0, i64 88
  %6 = load i32, ptr %5, align 8
  %7 = and i32 %6, 4
  %8 = icmp eq i32 %7, 0
  br i1 %8, label %uv__poll_stop.exit, label %9

9:                                                ; preds = %1
  %10 = and i32 %6, -5
  store i32 %10, ptr %5, align 8
  %11 = and i32 %6, 8
  %.not.i = icmp eq i32 %11, 0
  br i1 %.not.i, label %uv__poll_stop.exit, label %12

12:                                               ; preds = %9
  %13 = load ptr, ptr %2, align 8
  %14 = getelementptr inbounds nuw i8, ptr %13, i64 8
  %15 = load i32, ptr %14, align 8
  %16 = add i32 %15, -1
  store i32 %16, ptr %14, align 8
  br label %uv__poll_stop.exit

uv__poll_stop.exit:                               ; preds = %1, %9, %12
  %17 = load ptr, ptr %2, align 8
  %18 = getelementptr inbounds nuw i8, ptr %0, i64 152
  %19 = load i32, ptr %18, align 8
  tail call void @uv__platform_invalidate_fd(ptr noundef %17, i32 noundef %19) #2
  ret void
}